; ModuleID = 'source-C-CXX/14/250.c'
source_filename = "source-C-CXX/14/250.c"
target datalayout = "e-m:e-p270:32:32-p271:32:32-p272:64:64-i64:64-f80:128-n8:16:32:64-S128"
target triple = "x86_64-pc-linux-gnu"

@.str = private unnamed_addr constant [4 x i8] c"%d\0A\00", align 1
@.str.1 = private unnamed_addr constant [3 x i8] c"%d\00", align 1
@.str.2 = private unnamed_addr constant [4 x i8] c" %d\00", align 1
@.str.3 = private unnamed_addr constant [2 x i8] c"\0A\00", align 1

; Function Attrs: nofree nounwind sspstrong uwtable
define dso_local i32 @main() local_unnamed_addr #0 {
  %1 = alloca i32, align 4
  %2 = bitcast i32* %1 to i8*
  call void @llvm.lifetime.start.p0i8(i64 4, i8* nonnull %2) #4
  %3 = call i32 (i8*, ...) @__isoc99_scanf(i8* getelementptr inbounds ([4 x i8], [4 x i8]* @.str, i64 0, i64 0), i32* nonnull %1)
  %4 = load i32, i32* %1, align 4, !tbaa !5
  %5 = zext i32 %4 to i64
  %6 = call i8* @llvm.stacksave()
  %7 = alloca i32, i64 %5, align 16
  %8 = load i32, i32* %1, align 4, !tbaa !5
  %9 = icmp sgt i32 %8, 0
  br i1 %9, label %10, label %41

10:                                               ; preds = %0, %32
  %11 = phi i32 [ %36, %32 ], [ 0, %0 ]
  %12 = phi i32 [ %38, %32 ], [ 0, %0 ]
  %13 = call i32 (i8*, ...) @__isoc99_scanf(i8* getelementptr inbounds ([3 x i8], [3 x i8]* @.str.1, i64 0, i64 0), i32* nonnull %7)
  %14 = load i32, i32* %7, align 16, !tbaa !5
  %15 = icmp eq i32 %14, 0
  %16 = zext i1 %15 to i32
  %17 = load i32, i32* %1, align 4, !tbaa !5
  %18 = icmp sgt i32 %17, 1
  br i1 %18, label %19, label %32

19:                                               ; preds = %10, %19
  %20 = phi i64 [ %28, %19 ], [ 1, %10 ]
  %21 = phi i32 [ %27, %19 ], [ %16, %10 ]
  %22 = getelementptr inbounds i32, i32* %7, i64 %20
  %23 = call i32 (i8*, ...) @__isoc99_scanf(i8* getelementptr inbounds ([4 x i8], [4 x i8]* @.str.2, i64 0, i64 0), i32* nonnull %22)
  %24 = load i32, i32* %22, align 4, !tbaa !5
  %25 = icmp eq i32 %24, 0
  %26 = zext i1 %25 to i32
  %27 = add nuw nsw i32 %21, %26
  %28 = add nuw nsw i64 %20, 1
  %29 = load i32, i32* %1, align 4, !tbaa !5
  %30 = sext i32 %29 to i64
  %31 = icmp slt i64 %28, %30
  br i1 %31, label %19, label %32, !llvm.loop !9

32:                                               ; preds = %19, %10
  %33 = phi i32 [ %16, %10 ], [ %27, %19 ]
  %34 = icmp eq i32 %33, 2
  %35 = zext i1 %34 to i32
  %36 = add nuw nsw i32 %11, %35
  %37 = call i32 (i8*, ...) @__isoc99_scanf(i8* getelementptr inbounds ([2 x i8], [2 x i8]* @.str.3, i64 0, i64 0))
  %38 = add nuw nsw i32 %12, 1
  %39 = load i32, i32* %1, align 4, !tbaa !5
  %40 = icmp slt i32 %38, %39
  br i1 %40, label %10, label %41, !llvm.loop !11

41:                                               ; preds = %32, %0
  %42 = phi i32 [ 0, %0 ], [ %36, %32 ]
  %43 = mul nsw i32 %42, %42
  %44 = call i32 (i8*, ...) @printf(i8* nonnull dereferenceable(1) getelementptr inbounds ([4 x i8], [4 x i8]* @.str, i64 0, i64 0), i32 %43)
  call void @llvm.stackrestore(i8* %6)
  call void @llvm.lifetime.end.p0i8(i64 4, i8* nonnull %2) #4
  ret i32 0
}

; Function Attrs: argmemonly mustprogress nofree nosync nounwind willreturn
declare void @llvm.lifetime.start.p0i8(i64 immarg, i8* nocapture) #1

; Function Attrs: nofree nounwind
declare noundef i32 @__isoc99_scanf(i8* nocapture noundef readonly, ...) local_unnamed_addr #2

; Function Attrs: mustprogress nofree nosync nounwind willreturn
declare i8* @llvm.stacksave() #3

; Function Attrs: nofree nounwind
declare noundef i32 @printf(i8* nocapture noundef readonly, ...) local_unnamed_addr #2

; Function Attrs: argmemonly mustprogress nofree nosync nounwind willreturn
declare void @llvm.lifetime.end.p0i8(i64 immarg, i8* nocapture) #1

; Function Attrs: mustprogress nofree nosync nounwind willreturn
declare void @llvm.stackrestore(i8*) #3


!llvm.module.flags = !{!0, !1, !2, !3}
!llvm.ident = !{!4}

!0 = !{i32 1, !"wchar_size", i32 4}
!1 = !{i32 7, !"PIC Level", i32 2}
!2 = !{i32 7, !"PIE Level", i32 2}
!3 = !{i32 7, !"uwtable", i32 1}
!4 = !{!"clang version 13.0.0"}
!5 = !{!6, !6, i64 0}
!6 = !{!"int", !7, i64 0}
!7 = !{!"omnipotent char", !8, i64 0}
!8 = !{!"Simple C/C++ TBAA"}
!9 = distinct !{!9, !10}
!10 = !{!"llvm.loop.mustprogress"}
!11 = distinct !{!11, !10}
